cnumpy.core.multiarray
_reconstruct
p1
(cnumpy
ndarray
p2
(I0
tS'b'
tRp3
(I1
(L2L
L1L
tcnumpy
dtype
p4
(S'f8'
I0
I1
tRp5
(I3
S'<'
NNNI-1
I-1
I0
tbI00
S'[\x8f\x9a9\xd47\x80@\x81\x05\xf8\xf5\xad\x85\xdb?'
tb.